; Function Attrs: mustprogress uwtable
define hidden void @_ZN2cv6detail8tracking15online_boosting14BaseClassifier9getErrorsEPf(ptr noundef nonnull readonly align 8 captures(none) dereferenceable(84) %0, ptr noundef captures(none) %1) local_unnamed_addr #3 align 2 personality ptr @__gxx_personality_v0 {
  %3 = alloca %"class.std::__cxx11::basic_string", align 8
  %4 = alloca %"class.std::allocator.15", align 1
  %5 = getelementptr inbounds nuw i8, ptr %0, i64 20
  %6 = load i32, ptr %5, align 4, !tbaa !116
  %7 = getelementptr inbounds nuw i8, ptr %0, i64 80
  %8 = load i32, ptr %7, align 8, !tbaa !117
  %9 = add nsw i32 %8, %6
  %10 = icmp sgt i32 %9, 0
  br i1 %10, label %.lr.ph, label %._crit_edge

.lr.ph:                                           ; preds = %2
  %11 = getelementptr inbounds nuw i8, ptr %0, i64 56
  %12 = load ptr, ptr %11, align 8
  %13 = getelementptr inbounds nuw i8, ptr %0, i64 32
  %14 = load ptr, ptr %13, align 8
  %wide.trip.count = zext nneg i32 %9 to i64
  br label %15

._crit_edge:                                      ; preds = %37, %2
  ret void

15:                                               ; preds = %.lr.ph, %37
  %indvars.iv = phi i64 [ 0, %.lr.ph ], [ %indvars.iv.next, %37 ]
  %16 = getelementptr inbounds nuw float, ptr %1, i64 %indvars.iv
  %17 = load float, ptr %16, align 4, !tbaa !34
  %18 = fcmp oeq float %17, 0x47EFFFFFE0000000
  br i1 %18, label %37, label %19

19:                                               ; preds = %15
  %20 = getelementptr inbounds nuw float, ptr %12, i64 %indvars.iv
  %21 = load float, ptr %20, align 4, !tbaa !34
  %22 = getelementptr inbounds nuw float, ptr %14, i64 %indvars.iv
  %23 = load float, ptr %22, align 4, !tbaa !34
  %24 = fadd float %21, %23
  %25 = fdiv float %21, %24
  store float %25, ptr %16, align 4, !tbaa !34
  %26 = fcmp ogt float %25, 0.000000e+00
  br i1 %26, label %37, label %27

27:                                               ; preds = %19
  call void @llvm.lifetime.start.p0(i64 32, ptr nonnull %3) #24
  call void @llvm.lifetime.start.p0(i64 1, ptr nonnull %4) #24
  call void @_ZNSt7__cxx1112basic_stringIcSt11char_traitsIcESaIcEEC2EPKcRKS3_(ptr noundef nonnull align 8 dereferenceable(32) %3, ptr noundef nonnull @.str, ptr noundef nonnull align 1 dereferenceable(1) %4)
  invoke void @_ZN2cv5errorEiRKNSt7__cxx1112basic_stringIcSt11char_traitsIcESaIcEEEPKcS9_i(i32 noundef -215, ptr noundef nonnull align 8 dereferenceable(32) %3, ptr noundef nonnull @__func__._ZN2cv6detail8tracking15online_boosting14BaseClassifier9getErrorsEPf, ptr noundef nonnull @.str.1, i32 noundef 372) #27
          to label %28 unwind label %29

28:                                               ; preds = %27
  unreachable

29:                                               ; preds = %27
  %30 = landingpad { ptr, i32 }
          cleanup
  %31 = load ptr, ptr %3, align 8, !tbaa !134
  %32 = getelementptr inbounds nuw i8, ptr %3, i64 16
  %33 = icmp eq ptr %31, %32
  br i1 %33, label %_ZNKSt7__cxx1112basic_stringIcSt11char_traitsIcESaIcEE11_M_is_localEv.exit.thread.i.i, label %_ZNKSt7__cxx1112basic_stringIcSt11char_traitsIcESaIcEE11_M_is_localEv.exit.i.i

_ZNKSt7__cxx1112basic_stringIcSt11char_traitsIcESaIcEE11_M_is_localEv.exit.thread.i.i: ; preds = %29
  %34 = getelementptr inbounds nuw i8, ptr %3, i64 8
  %35 = load i64, ptr %34, align 8, !tbaa !137
  %36 = icmp ult i64 %35, 16
  call void @llvm.assume(i1 %36)
  br label %_ZNSt7__cxx1112basic_stringIcSt11char_traitsIcESaIcEED2Ev.exit

_ZNKSt7__cxx1112basic_stringIcSt11char_traitsIcESaIcEE11_M_is_localEv.exit.i.i: ; preds = %29
  call void @_ZdlPv(ptr noundef %31) #26
  br label %_ZNSt7__cxx1112basic_stringIcSt11char_traitsIcESaIcEED2Ev.exit

_ZNSt7__cxx1112basic_stringIcSt11char_traitsIcESaIcEED2Ev.exit: ; preds = %_ZNKSt7__cxx1112basic_stringIcSt11char_traitsIcESaIcEE11_M_is_localEv.exit.i.i, %_ZNKSt7__cxx1112basic_stringIcSt11char_traitsIcESaIcEE11_M_is_localEv.exit.thread.i.i
  call void @llvm.lifetime.end.p0(i64 1, ptr nonnull %4) #24
  call void @llvm.lifetime.end.p0(i64 32, ptr nonnull %3) #24
  resume { ptr, i32 } %30

37:                                               ; preds = %19, %15
  %indvars.iv.next = add nuw nsw i64 %indvars.iv, 1
  %exitcond.not = icmp eq i64 %indvars.iv.next, %wide.trip.count
  br i1 %exitcond.not, label %._crit_edge, label %15, !llvm.loop !149
}